; ModuleID = '58/719.c'
source_filename = "58/719.c"
target datalayout = "e-m:e-p270:32:32-p271:32:32-p272:64:64-i64:64-f80:128-n8:16:32:64-S128"
target triple = "x86_64-pc-linux-gnu"

@s = common dso_local global [100 x i8] zeroinitializer, align 16
@l = common dso_local global i32 0, align 4
@.str = private unnamed_addr constant [4 x i8] c"%d\0A\00", align 1
@.str.1 = private unnamed_addr constant [3 x i8] c"%c\00", align 1

; Function Attrs: noinline nounwind uwtable
define dso_local i32 @check() #0 {
  %1 = alloca i32, align 4
  %2 = alloca i32, align 4
  %3 = load i8, i8* getelementptr inbounds ([100 x i8], [100 x i8]* @s, i64 0, i64 0), align 16
  %4 = sext i8 %3 to i32
  %5 = icmp slt i32 %4, 65
  br i1 %5, label %10, label %6

6:                                                ; preds = %0
  %7 = load i8, i8* getelementptr inbounds ([100 x i8], [100 x i8]* @s, i64 0, i64 0), align 16
  %8 = sext i8 %7 to i32
  %9 = icmp sgt i32 %8, 90
  br i1 %9, label %10, label %23

10:                                               ; preds = %6, %0
  %11 = load i8, i8* getelementptr inbounds ([100 x i8], [100 x i8]* @s, i64 0, i64 0), align 16
  %12 = sext i8 %11 to i32
  %13 = icmp slt i32 %12, 97
  br i1 %13, label %18, label %14

14:                                               ; preds = %10
  %15 = load i8, i8* getelementptr inbounds ([100 x i8], [100 x i8]* @s, i64 0, i64 0), align 16
  %16 = sext i8 %15 to i32
  %17 = icmp sgt i32 %16, 122
  br i1 %17, label %18, label %23

18:                                               ; preds = %14, %10
  %19 = load i8, i8* getelementptr inbounds ([100 x i8], [100 x i8]* @s, i64 0, i64 0), align 16
  %20 = sext i8 %19 to i32
  %21 = icmp ne i32 %20, 95
  br i1 %21, label %22, label %23

22:                                               ; preds = %18
  store i32 0, i32* %1, align 4
  br label %83

23:                                               ; preds = %18, %14, %6
  store i32 0, i32* %2, align 4
  br label %24

24:                                               ; preds = %79, %23
  %25 = load i32, i32* %2, align 4
  %26 = load i32, i32* @l, align 4
  %27 = icmp slt i32 %25, %26
  br i1 %27, label %28, label %82

28:                                               ; preds = %24
  %29 = load i32, i32* %2, align 4
  %30 = sext i32 %29 to i64
  %31 = getelementptr inbounds [100 x i8], [100 x i8]* @s, i64 0, i64 %30
  %32 = load i8, i8* %31, align 1
  %33 = sext i8 %32 to i32
  %34 = icmp slt i32 %33, 65
  br i1 %34, label %42, label %35

35:                                               ; preds = %28
  %36 = load i32, i32* %2, align 4
  %37 = sext i32 %36 to i64
  %38 = getelementptr inbounds [100 x i8], [100 x i8]* @s, i64 0, i64 %37
  %39 = load i8, i8* %38, align 1
  %40 = sext i8 %39 to i32
  %41 = icmp sgt i32 %40, 90
  br i1 %41, label %42, label %78

42:                                               ; preds = %35, %28
  %43 = load i32, i32* %2, align 4
  %44 = sext i32 %43 to i64
  %45 = getelementptr inbounds [100 x i8], [100 x i8]* @s, i64 0, i64 %44
  %46 = load i8, i8* %45, align 1
  %47 = sext i8 %46 to i32
  %48 = icmp slt i32 %47, 97
  br i1 %48, label %56, label %49

49:                                               ; preds = %42
  %50 = load i32, i32* %2, align 4
  %51 = sext i32 %50 to i64
  %52 = getelementptr inbounds [100 x i8], [100 x i8]* @s, i64 0, i64 %51
  %53 = load i8, i8* %52, align 1
  %54 = sext i8 %53 to i32
  %55 = icmp sgt i32 %54, 122
  br i1 %55, label %56, label %78

56:                                               ; preds = %49, %42
  %57 = load i32, i32* %2, align 4
  %58 = sext i32 %57 to i64
  %59 = getelementptr inbounds [100 x i8], [100 x i8]* @s, i64 0, i64 %58
  %60 = load i8, i8* %59, align 1
  %61 = sext i8 %60 to i32
  %62 = icmp ne i32 %61, 95
  br i1 %62, label %63, label %78

63:                                               ; preds = %56
  %64 = load i32, i32* %2, align 4
  %65 = sext i32 %64 to i64
  %66 = getelementptr inbounds [100 x i8], [100 x i8]* @s, i64 0, i64 %65
  %67 = load i8, i8* %66, align 1
  %68 = sext i8 %67 to i32
  %69 = icmp slt i32 %68, 48
  br i1 %69, label %77, label %70

70:                                               ; preds = %63
  %71 = load i32, i32* %2, align 4
  %72 = sext i32 %71 to i64
  %73 = getelementptr inbounds [100 x i8], [100 x i8]* @s, i64 0, i64 %72
  %74 = load i8, i8* %73, align 1
  %75 = sext i8 %74 to i32
  %76 = icmp sgt i32 %75, 57
  br i1 %76, label %77, label %78

77:                                               ; preds = %70, %63
  store i32 0, i32* %1, align 4
  br label %83

78:                                               ; preds = %70, %56, %49, %35
  br label %79

79:                                               ; preds = %78
  %80 = load i32, i32* %2, align 4
  %81 = add nsw i32 %80, 1
  store i32 %81, i32* %2, align 4
  br label %24

82:                                               ; preds = %24
  store i32 1, i32* %1, align 4
  br label %83

83:                                               ; preds = %82, %77, %22
  %84 = load i32, i32* %1, align 4
  ret i32 %84
}

; Function Attrs: noinline nounwind uwtable
define dso_local i32 @main() #0 {
  %1 = alloca i32, align 4
  %2 = alloca i32, align 4
  %3 = alloca i32, align 4
  %4 = alloca i32, align 4
  store i32 0, i32* %1, align 4
  %5 = call i32 (i8*, ...) @__isoc99_scanf(i8* getelementptr inbounds ([4 x i8], [4 x i8]* @.str, i64 0, i64 0), i32* %2)
  store i32 1, i32* %3, align 4
  br label %6

6:                                                ; preds = %40, %0
  %7 = load i32, i32* %3, align 4
  %8 = load i32, i32* %2, align 4
  %9 = icmp sle i32 %7, %8
  br i1 %9, label %10, label %43

10:                                               ; preds = %6
  store i32 0, i32* %4, align 4
  br label %11

11:                                               ; preds = %18, %10
  %12 = load i32, i32* %4, align 4
  %13 = icmp sle i32 %12, 99
  br i1 %13, label %14, label %21

14:                                               ; preds = %11
  %15 = load i32, i32* %4, align 4
  %16 = sext i32 %15 to i64
  %17 = getelementptr inbounds [100 x i8], [100 x i8]* @s, i64 0, i64 %16
  store i8 0, i8* %17, align 1
  br label %18

18:                                               ; preds = %14
  %19 = load i32, i32* %4, align 4
  %20 = add nsw i32 %19, 1
  store i32 %20, i32* %4, align 4
  br label %11

21:                                               ; preds = %11
  store i32 0, i32* @l, align 4
  %22 = call i32 (i8*, ...) @__isoc99_scanf(i8* getelementptr inbounds ([3 x i8], [3 x i8]* @.str.1, i64 0, i64 0), i8* getelementptr inbounds ([100 x i8], [100 x i8]* @s, i64 0, i64 0))
  br label %23

23:                                               ; preds = %30, %21
  %24 = load i32, i32* @l, align 4
  %25 = sext i32 %24 to i64
  %26 = getelementptr inbounds [100 x i8], [100 x i8]* @s, i64 0, i64 %25
  %27 = load i8, i8* %26, align 1
  %28 = sext i8 %27 to i32
  %29 = icmp ne i32 %28, 10
  br i1 %29, label %30, label %37

30:                                               ; preds = %23
  %31 = load i32, i32* @l, align 4
  %32 = add nsw i32 %31, 1
  store i32 %32, i32* @l, align 4
  %33 = load i32, i32* @l, align 4
  %34 = sext i32 %33 to i64
  %35 = getelementptr inbounds [100 x i8], [100 x i8]* @s, i64 0, i64 %34
  %36 = call i32 (i8*, ...) @__isoc99_scanf(i8* getelementptr inbounds ([3 x i8], [3 x i8]* @.str.1, i64 0, i64 0), i8* %35)
  br label %23

37:                                               ; preds = %23
  %38 = call i32 @check()
  %39 = call i32 (i8*, ...) @printf(i8* getelementptr inbounds ([4 x i8], [4 x i8]* @.str, i64 0, i64 0), i32 %38)
  br label %40

40:                                               ; preds = %37
  %41 = load i32, i32* %3, align 4
  %42 = add nsw i32 %41, 1
  store i32 %42, i32* %3, align 4
  br label %6

43:                                               ; preds = %6
  ret i32 0
}

declare dso_local i32 @__isoc99_scanf(i8*, ...) #1

declare dso_local i32 @printf(i8*, ...) #1


!llvm.module.flags = !{!0}
!llvm.ident = !{!1}

!0 = !{i32 1, !"wchar_size", i32 4}
!1 = !{!"clang version 10.0.0-4ubuntu1 "}
